target datalayout = "e-m:e-p270:32:32-p271:32:32-p272:64:64-i64:64-i128:128-f80:128-n8:16:32:64-S128"
target triple = "x86_64-pc-linux-gnu"

%struct.ZSTD_customMem = type { ptr, ptr, ptr }
%struct.ZSTD_DCtx_s = type { ptr, ptr, ptr, ptr, %struct.ZSTD_entropyDTables_t, [640 x i32], ptr, ptr, ptr, ptr, i64, %struct.ZSTD_FrameHeader, i64, i64, i32, i32, i32, i32, %struct.XXH64_state_s, i64, i32, i32, i32, ptr, %struct.ZSTD_customMem, i64, i64, i64, i32, i32, ptr, ptr, i32, i32, i32, ptr, i32, i32, i32, i32, ptr, i64, i64, i64, ptr, i64, i64, i64, i64, ptr, i32, i32, i32, i32, i32, %struct.ZSTD_outBuffer_s, ptr, ptr, i32, [65568 x i8], [18 x i8], i64, i64 }
%struct.ZSTD_entropyDTables_t = type { [513 x %struct.ZSTD_seqSymbol], [257 x %struct.ZSTD_seqSymbol], [513 x %struct.ZSTD_seqSymbol], [4097 x i32], [3 x i32], [157 x i32] }
%struct.ZSTD_seqSymbol = type { i16, i8, i8, i32 }
%struct.ZSTD_FrameHeader = type { i64, i64, i32, i32, i32, i32, i32, i32, i32 }
%struct.XXH64_state_s = type { i64, [4 x i64], [4 x i64], i32, i32, i64 }
%struct.ZSTD_outBuffer_s = type { ptr, i64, i64 }
%struct.ZSTD_DDictHashSet = type { ptr, i64, i64 }

; Function Attrs: nounwind uwtable
define internal void @ZSTD_freeDDictHashSet(ptr noundef %0, ptr noundef byval(%struct.ZSTD_customMem) align 8 %1) #0 {
  %3 = alloca ptr, align 8
  store ptr %0, ptr %3, align 8, !tbaa !23
  br label %4

4:                                                ; preds = %2
  br label %5

5:                                                ; preds = %4
  %6 = load ptr, ptr %3, align 8, !tbaa !23
  %7 = icmp ne ptr %6, null
  br i1 %7, label %8, label %17

8:                                                ; preds = %5
  %9 = load ptr, ptr %3, align 8, !tbaa !23
  %10 = getelementptr inbounds nuw %struct.ZSTD_DDictHashSet, ptr %9, i32 0, i32 0
  %11 = load ptr, ptr %10, align 8, !tbaa !44
  %12 = icmp ne ptr %11, null
  br i1 %12, label %13, label %17

13:                                               ; preds = %8
  %14 = load ptr, ptr %3, align 8, !tbaa !23
  %15 = getelementptr inbounds nuw %struct.ZSTD_DDictHashSet, ptr %14, i32 0, i32 0
  %16 = load ptr, ptr %15, align 8, !tbaa !44
  call void @ZSTD_customFree(ptr noundef %16, ptr noundef byval(%struct.ZSTD_customMem) align 8 %1)
  br label %17

17:                                               ; preds = %13, %8, %5
  %18 = load ptr, ptr %3, align 8, !tbaa !23
  %19 = icmp ne ptr %18, null
  br i1 %19, label %20, label %22

20:                                               ; preds = %17
  %21 = load ptr, ptr %3, align 8, !tbaa !23
  call void @ZSTD_customFree(ptr noundef %21, ptr noundef byval(%struct.ZSTD_customMem) align 8 %1)
  br label %22

22:                                               ; preds = %20, %17
  ret void
}

; Function Attrs: inlinehint nounwind uwtable
define internal i64 @ZSTD_freeLegacyStreamContext(ptr noundef %0, i32 noundef %1) #4 {
  %3 = alloca i64, align 8
  %4 = alloca ptr, align 8
  %5 = alloca i32, align 4
  store ptr %0, ptr %4, align 8, !tbaa !23
  store i32 %1, ptr %5, align 4, !tbaa !43
  %6 = load i32, ptr %5, align 4, !tbaa !43
  switch i32 %6, label %7 [
    i32 1, label %8
    i32 2, label %8
    i32 3, label %8
    i32 5, label %9
    i32 6, label %12
    i32 7, label %15
  ]

7:                                                ; preds = %2
  br label %8

8:                                                ; preds = %2, %2, %2, %7
  store i64 -12, ptr %3, align 8
  br label %18

9:                                                ; preds = %2
  %10 = load ptr, ptr %4, align 8, !tbaa !23
  %11 = call i64 @ZBUFFv05_freeDCtx(ptr noundef %10)
  store i64 %11, ptr %3, align 8
  br label %18

12:                                               ; preds = %2
  %13 = load ptr, ptr %4, align 8, !tbaa !23
  %14 = call i64 @ZBUFFv06_freeDCtx(ptr noundef %13)
  store i64 %14, ptr %3, align 8
  br label %18

15:                                               ; preds = %2
  %16 = load ptr, ptr %4, align 8, !tbaa !23
  %17 = call i64 @ZBUFFv07_freeDCtx(ptr noundef %16)
  store i64 %17, ptr %3, align 8
  br label %18

18:                                               ; preds = %15, %12, %9, %8
  %19 = load i64, ptr %3, align 8
  ret i64 %19
}

; Function Attrs: inlinehint nounwind uwtable
define internal void @ZSTD_customFree(ptr noundef %0, ptr noundef byval(%struct.ZSTD_customMem) align 8 %1) #4 {
  %3 = alloca ptr, align 8
  store ptr %0, ptr %3, align 8, !tbaa !23
  %4 = load ptr, ptr %3, align 8, !tbaa !23
  %5 = icmp ne ptr %4, null
  br i1 %5, label %6, label %19

6:                                                ; preds = %2
  %7 = getelementptr inbounds nuw %struct.ZSTD_customMem, ptr %1, i32 0, i32 1
  %8 = load ptr, ptr %7, align 8, !tbaa !40
  %9 = icmp ne ptr %8, null
  br i1 %9, label %10, label %16

10:                                               ; preds = %6
  %11 = getelementptr inbounds nuw %struct.ZSTD_customMem, ptr %1, i32 0, i32 1
  %12 = load ptr, ptr %11, align 8, !tbaa !40
  %13 = getelementptr inbounds nuw %struct.ZSTD_customMem, ptr %1, i32 0, i32 2
  %14 = load ptr, ptr %13, align 8, !tbaa !42
  %15 = load ptr, ptr %3, align 8, !tbaa !23
  call void %12(ptr noundef %14, ptr noundef %15)
  br label %18

16:                                               ; preds = %6
  %17 = load ptr, ptr %3, align 8, !tbaa !23
  call void @free(ptr noundef %17) #11
  br label %18

18:                                               ; preds = %16, %10
  br label %19

19:                                               ; preds = %18, %2
  ret void
}

; Function Attrs: nounwind uwtable
define internal void @ZSTD_clearDict(ptr noundef %0) #0 {
  %2 = alloca ptr, align 8
  store ptr %0, ptr %2, align 8, !tbaa !3
  %3 = load ptr, ptr %2, align 8, !tbaa !3
  %4 = getelementptr inbounds nuw %struct.ZSTD_DCtx_s, ptr %3, i32 0, i32 30
  %5 = load ptr, ptr %4, align 8, !tbaa !8
  %6 = call i64 @ZSTD_freeDDict(ptr noundef %5)
  %7 = load ptr, ptr %2, align 8, !tbaa !3
  %8 = getelementptr inbounds nuw %struct.ZSTD_DCtx_s, ptr %7, i32 0, i32 30
  store ptr null, ptr %8, align 8, !tbaa !8
  %9 = load ptr, ptr %2, align 8, !tbaa !3
  %10 = getelementptr inbounds nuw %struct.ZSTD_DCtx_s, ptr %9, i32 0, i32 31
  store ptr null, ptr %10, align 8, !tbaa !27
  %11 = load ptr, ptr %2, align 8, !tbaa !3
  %12 = getelementptr inbounds nuw %struct.ZSTD_DCtx_s, ptr %11, i32 0, i32 34
  store i32 0, ptr %12, align 8, !tbaa !30
  ret void
}

; Function Attrs: nounwind uwtable
define i64 @ZSTD_freeDCtx(ptr noundef %0) #0 {
  %2 = alloca i64, align 8
  %3 = alloca ptr, align 8
  %4 = alloca %struct.ZSTD_customMem, align 8
  store ptr %0, ptr %3, align 8, !tbaa !3
  %5 = load ptr, ptr %3, align 8, !tbaa !3
  %6 = icmp eq ptr %5, null
  br i1 %6, label %7, label %8

7:                                                ; preds = %1
  store i64 0, ptr %2, align 8
  br label %58

8:                                                ; preds = %1
  br label %9

9:                                                ; preds = %8
  %10 = load ptr, ptr %3, align 8, !tbaa !3
  %11 = getelementptr inbounds nuw %struct.ZSTD_DCtx_s, ptr %10, i32 0, i32 27
  %12 = load i64, ptr %11, align 8, !tbaa !25
  %13 = icmp ne i64 %12, 0
  br i1 %13, label %14, label %23

14:                                               ; preds = %9
  br label %15

15:                                               ; preds = %14
  br label %16

16:                                               ; preds = %15
  br label %17

17:                                               ; preds = %16
  br label %18

18:                                               ; preds = %17
  br label %19

19:                                               ; preds = %18
  br label %20

20:                                               ; preds = %19
  br label %21

21:                                               ; preds = %20
  br label %22

22:                                               ; preds = %21
  store i64 -64, ptr %2, align 8
  br label %58

23:                                               ; preds = %9
  br label %24

24:                                               ; preds = %23
  call void @llvm.lifetime.start.p0(i64 24, ptr %4) #11
  %25 = load ptr, ptr %3, align 8, !tbaa !3
  %26 = getelementptr inbounds nuw %struct.ZSTD_DCtx_s, ptr %25, i32 0, i32 24
  call void @llvm.memcpy.p0.p0.i64(ptr align 8 %4, ptr align 8 %26, i64 24, i1 false), !tbaa.struct !41
  %27 = load ptr, ptr %3, align 8, !tbaa !3
  call void @ZSTD_clearDict(ptr noundef %27)
  %28 = load ptr, ptr %3, align 8, !tbaa !3
  %29 = getelementptr inbounds nuw %struct.ZSTD_DCtx_s, ptr %28, i32 0, i32 40
  %30 = load ptr, ptr %29, align 8, !tbaa !26
  call void @ZSTD_customFree(ptr noundef %30, ptr noundef byval(%struct.ZSTD_customMem) align 8 %4)
  %31 = load ptr, ptr %3, align 8, !tbaa !3
  %32 = getelementptr inbounds nuw %struct.ZSTD_DCtx_s, ptr %31, i32 0, i32 40
  store ptr null, ptr %32, align 8, !tbaa !26
  %33 = load ptr, ptr %3, align 8, !tbaa !3
  %34 = getelementptr inbounds nuw %struct.ZSTD_DCtx_s, ptr %33, i32 0, i32 49
  %35 = load ptr, ptr %34, align 8, !tbaa !32
  %36 = icmp ne ptr %35, null
  br i1 %36, label %37, label %45

37:                                               ; preds = %24
  %38 = load ptr, ptr %3, align 8, !tbaa !3
  %39 = getelementptr inbounds nuw %struct.ZSTD_DCtx_s, ptr %38, i32 0, i32 49
  %40 = load ptr, ptr %39, align 8, !tbaa !32
  %41 = load ptr, ptr %3, align 8, !tbaa !3
  %42 = getelementptr inbounds nuw %struct.ZSTD_DCtx_s, ptr %41, i32 0, i32 50
  %43 = load i32, ptr %42, align 8, !tbaa !33
  %44 = call i64 @ZSTD_freeLegacyStreamContext(ptr noundef %40, i32 noundef %43)
  br label %45

45:                                               ; preds = %37, %24
  %46 = load ptr, ptr %3, align 8, !tbaa !3
  %47 = getelementptr inbounds nuw %struct.ZSTD_DCtx_s, ptr %46, i32 0, i32 35
  %48 = load ptr, ptr %47, align 8, !tbaa !38
  %49 = icmp ne ptr %48, null
  br i1 %49, label %50, label %56

50:                                               ; preds = %45
  %51 = load ptr, ptr %3, align 8, !tbaa !3
  %52 = getelementptr inbounds nuw %struct.ZSTD_DCtx_s, ptr %51, i32 0, i32 35
  %53 = load ptr, ptr %52, align 8, !tbaa !38
  call void @ZSTD_freeDDictHashSet(ptr noundef %53, ptr noundef byval(%struct.ZSTD_customMem) align 8 %4)
  %54 = load ptr, ptr %3, align 8, !tbaa !3
  %55 = getelementptr inbounds nuw %struct.ZSTD_DCtx_s, ptr %54, i32 0, i32 35
  store ptr null, ptr %55, align 8, !tbaa !38
  br label %56

56:                                               ; preds = %50, %45
  %57 = load ptr, ptr %3, align 8, !tbaa !3
  call void @ZSTD_customFree(ptr noundef %57, ptr noundef byval(%struct.ZSTD_customMem) align 8 %4)
  store i64 0, ptr %2, align 8
  call void @llvm.lifetime.end.p0(i64 24, ptr %4) #11
  br label %58

58:                                               ; preds = %56, %22, %7
  %59 = load i64, ptr %2, align 8
  ret i64 %59
}