; Function Attrs: nounwind uwtable
define range(i64 -64, 1) i64 @ZSTD_freeDCtx(ptr noundef %0) local_unnamed_addr #0 {
  %2 = icmp eq ptr %0, null
  br i1 %2, label %ZSTD_customFree.exit26, label %3

3:                                                ; preds = %1
  %4 = getelementptr inbounds nuw i8, ptr %0, i64 30168
  %5 = load i64, ptr %4, align 8, !tbaa !41
  %.not = icmp eq i64 %5, 0
  br i1 %.not, label %6, label %ZSTD_customFree.exit26

6:                                                ; preds = %3
  %.sroa.3.0..sroa_idx = getelementptr inbounds nuw i8, ptr %0, i64 30136
  %.sroa.3.0.copyload = load ptr, ptr %.sroa.3.0..sroa_idx, align 8, !tbaa !43
  %.sroa.6.0..sroa_idx = getelementptr inbounds nuw i8, ptr %0, i64 30144
  %.sroa.6.0.copyload = load ptr, ptr %.sroa.6.0..sroa_idx, align 8, !tbaa !43
  %7 = getelementptr inbounds nuw i8, ptr %0, i64 30184
  %8 = load ptr, ptr %7, align 8, !tbaa !3
  %9 = tail call i64 @ZSTD_freeDDict(ptr noundef %8) #17
  %10 = getelementptr inbounds nuw i8, ptr %0, i64 30208
  store i32 0, ptr %10, align 8, !tbaa !23
  tail call void @llvm.memset.p0.i64(ptr noundef nonnull align 8 dereferenceable(16) %7, i8 0, i64 16, i1 false)
  %11 = getelementptr inbounds nuw i8, ptr %0, i64 30240
  %12 = load ptr, ptr %11, align 8, !tbaa !42
  %.not.i = icmp eq ptr %12, null
  br i1 %.not.i, label %ZSTD_customFree.exit, label %13

13:                                               ; preds = %6
  %.not4.i = icmp eq ptr %.sroa.3.0.copyload, null
  br i1 %.not4.i, label %15, label %14

14:                                               ; preds = %13
  tail call void %.sroa.3.0.copyload(ptr noundef %.sroa.6.0.copyload, ptr noundef nonnull %12) #17
  br label %ZSTD_customFree.exit

15:                                               ; preds = %13
  tail call void @free(ptr noundef nonnull %12) #17
  br label %ZSTD_customFree.exit

ZSTD_customFree.exit:                             ; preds = %6, %14, %15
  store ptr null, ptr %11, align 8, !tbaa !42
  %16 = getelementptr inbounds nuw i8, ptr %0, i64 30312
  %17 = load ptr, ptr %16, align 8, !tbaa !24
  %.not16 = icmp eq ptr %17, null
  br i1 %.not16, label %ZSTD_freeLegacyStreamContext.exit, label %18

18:                                               ; preds = %ZSTD_customFree.exit
  %19 = getelementptr inbounds nuw i8, ptr %0, i64 30320
  %20 = load i32, ptr %19, align 8, !tbaa !25
  switch i32 %20, label %ZSTD_freeLegacyStreamContext.exit [
    i32 7, label %25
    i32 6, label %23
    i32 5, label %21
  ]

21:                                               ; preds = %18
  %22 = tail call i64 @ZBUFFv05_freeDCtx(ptr noundef nonnull %17) #17
  br label %ZSTD_freeLegacyStreamContext.exit

23:                                               ; preds = %18
  %24 = tail call i64 @ZBUFFv06_freeDCtx(ptr noundef nonnull %17) #17
  br label %ZSTD_freeLegacyStreamContext.exit

25:                                               ; preds = %18
  %26 = tail call i64 @ZBUFFv07_freeDCtx(ptr noundef nonnull %17) #17
  br label %ZSTD_freeLegacyStreamContext.exit

ZSTD_freeLegacyStreamContext.exit:                ; preds = %25, %23, %21, %18, %ZSTD_customFree.exit
  %27 = getelementptr inbounds nuw i8, ptr %0, i64 30216
  %28 = load ptr, ptr %27, align 8, !tbaa !33
  %.not17 = icmp eq ptr %28, null
  br i1 %.not17, label %34, label %29

29:                                               ; preds = %ZSTD_freeLegacyStreamContext.exit
  %30 = load ptr, ptr %28, align 8, !tbaa !44
  %.not.i23 = icmp eq ptr %30, null
  %.not4.i10.i = icmp eq ptr %.sroa.3.0.copyload, null
  br i1 %.not.i23, label %ZSTD_customFree.exit.i, label %31

31:                                               ; preds = %29
  br i1 %.not4.i10.i, label %ZSTD_customFree.exit.thread.i, label %ZSTD_customFree.exit.thread2.i

ZSTD_customFree.exit.thread2.i:                   ; preds = %31
  tail call void %.sroa.3.0.copyload(ptr noundef %.sroa.6.0.copyload, ptr noundef nonnull %30) #17
  br label %32

ZSTD_customFree.exit.thread.i:                    ; preds = %31
  tail call void @free(ptr noundef nonnull %30) #17
  br label %33

ZSTD_customFree.exit.i:                           ; preds = %29
  br i1 %.not4.i10.i, label %33, label %32

32:                                               ; preds = %ZSTD_customFree.exit.i, %ZSTD_customFree.exit.thread2.i
  tail call void %.sroa.3.0.copyload(ptr noundef %.sroa.6.0.copyload, ptr noundef nonnull %28) #17
  br label %ZSTD_freeDDictHashSet.exit

33:                                               ; preds = %ZSTD_customFree.exit.i, %ZSTD_customFree.exit.thread.i
  tail call void @free(ptr noundef nonnull %28) #17
  br label %ZSTD_freeDDictHashSet.exit

ZSTD_freeDDictHashSet.exit:                       ; preds = %32, %33
  store ptr null, ptr %27, align 8, !tbaa !33
  br label %34

34:                                               ; preds = %ZSTD_freeLegacyStreamContext.exit, %ZSTD_freeDDictHashSet.exit
  %.not4.i25 = icmp eq ptr %.sroa.3.0.copyload, null
  br i1 %.not4.i25, label %36, label %35

35:                                               ; preds = %34
  tail call void %.sroa.3.0.copyload(ptr noundef %.sroa.6.0.copyload, ptr noundef nonnull %0) #17
  br label %ZSTD_customFree.exit26

36:                                               ; preds = %34
  tail call void @free(ptr noundef nonnull %0) #17
  br label %ZSTD_customFree.exit26

ZSTD_customFree.exit26:                           ; preds = %36, %35, %3, %1
  %.0 = phi i64 [ 0, %1 ], [ -64, %3 ], [ 0, %35 ], [ 0, %36 ]
  ret i64 %.0
}